EXPORTS
    _ZN8queueing10Classifier10initializeEv @1
    _ZN8queueing10Classifier13handleMessageEPN7omnetpp8cMessageE @2
    _ZN8queueing10Deallocate10initializeEv @3
    _ZN8queueing10Deallocate13handleMessageEPN7omnetpp8cMessageE @4
    _ZN8queueing10SourceBase10initializeEv @5
    _ZN8queueing10SourceBase6finishEv @6
    _ZN8queueing10SourceBase9createJobEv @7
    _ZN8queueing10SourceOnce10initializeEv @8
    _ZN8queueing10SourceOnce13handleMessageEPN7omnetpp8cMessageE @9
    _ZN8queueing12PassiveQueue10initializeEv @10
    _ZN8queueing12PassiveQueue13handleMessageEPN7omnetpp8cMessageE @11
    _ZN8queueing12PassiveQueue6lengthEv @12
    _ZN8queueing12PassiveQueue7requestEi @13
    _ZN8queueing12PassiveQueue7sendJobEPNS_3JobEi @14
    _ZN8queueing12PassiveQueueD0Ev @15
    _ZN8queueing12PassiveQueueD1Ev @16
    _ZN8queueing12PassiveQueueD2Ev @17
    _ZN8queueing12ResourcePool10initializeEv @18
    _ZN8queueing12ResourcePool13tryToAllocateEPNS_18IResourceAllocatorEli @19
    _ZN8queueing12ResourcePool3addERNS0_17AllocationRequestE @20
    _ZN8queueing12ResourcePool7releaseEl @21
    _ZN8queueing17SelectionStrategy12isSelectableEPN7omnetpp7cModuleE @22
    _ZN8queueing17SelectionStrategy14selectableGateEi @23
    _ZN8queueing17SelectionStrategy6createEPKcPN7omnetpp13cSimpleModuleEb @24
    _ZN8queueing17SelectionStrategyC2EPN7omnetpp13cSimpleModuleEb @25
    _ZN8queueing18ResourceBasedQueue10endServiceEPNS_3JobE @26
    _ZN8queueing18ResourceBasedQueue10initializeEv @27
    _ZN8queueing18ResourceBasedQueue12getFromQueueEv @28
    _ZN8queueing18ResourceBasedQueue12startServiceEPNS_3JobE @29
    _ZN8queueing18ResourceBasedQueue13handleMessageEPN7omnetpp8cMessageE @30
    _ZN8queueing18ResourceBasedQueue15releaseResourceEv @31
    _ZN8queueing18ResourceBasedQueue15resourceGrantedEPNS_13IResourcePoolE @32
    _ZN8queueing18ResourceBasedQueue16allocateResourceEPNS_3JobE @33
    _ZN8queueing18ResourceBasedQueue19isResourceAllocatedEv @34
    _ZN8queueing18ResourceBasedQueue4peekEv @35
    _ZN8queueing18ResourceBasedQueue6lengthEv @36
    _ZN8queueing18ResourceBasedQueue7arrivalEPNS_3JobE @37
    _ZN8queueing18ResourceBasedQueueD0Ev @38
    _ZN8queueing18ResourceBasedQueueD1Ev @39
    _ZN8queueing18ResourceBasedQueueD2Ev @40
    _ZN8queueing23RandomSelectionStrategy6selectEv @41
    _ZN8queueing23RandomSelectionStrategyC1EPN7omnetpp13cSimpleModuleEb @42
    _ZN8queueing23RandomSelectionStrategyC2EPN7omnetpp13cSimpleModuleEb @43
    _ZN8queueing25PrioritySelectionStrategy6selectEv @44
    _ZN8queueing25PrioritySelectionStrategyC1EPN7omnetpp13cSimpleModuleEb @45
    _ZN8queueing25PrioritySelectionStrategyC2EPN7omnetpp13cSimpleModuleEb @46
    _ZN8queueing27RoundRobinSelectionStrategy6selectEv @47
    _ZN8queueing27RoundRobinSelectionStrategyC1EPN7omnetpp13cSimpleModuleEb @48
    _ZN8queueing27RoundRobinSelectionStrategyC2EPN7omnetpp13cSimpleModuleEb @49
    _ZN8queueing29LongestQueueSelectionStrategy6selectEv @50
    _ZN8queueing29LongestQueueSelectionStrategyC1EPN7omnetpp13cSimpleModuleEb @51
    _ZN8queueing29LongestQueueSelectionStrategyC2EPN7omnetpp13cSimpleModuleEb @52
    _ZN8queueing30ShortestQueueSelectionStrategy6selectEv @53
    _ZN8queueing30ShortestQueueSelectionStrategyC1EPN7omnetpp13cSimpleModuleEb @54
    _ZN8queueing30ShortestQueueSelectionStrategyC2EPN7omnetpp13cSimpleModuleEb @55
    _ZN8queueing3Job11makeChildOfEPS0_ @56
    _ZN8queueing3Job12childDeletedEPS0_ @57
    _ZN8queueing3Job13parentDeletedEv @58
    _ZN8queueing3Job8addChildEPS0_ @59
    _ZN8queueing3Job8getChildEi @60
    _ZN8queueing3Job9getParentEv @61
    _ZN8queueing3Job9setParentEPS0_ @62
    _ZN8queueing3JobC1EPKciPNS_7JobListE @63
    _ZN8queueing3JobC1ERKS0_ @64
    _ZN8queueing3JobC2EPKciPNS_7JobListE @65
    _ZN8queueing3JobC2ERKS0_ @66
    _ZN8queueing3JobD0Ev @67
    _ZN8queueing3JobD1Ev @68
    _ZN8queueing3JobD2Ev @69
    _ZN8queueing3JobaSERKS0_ @70
    _ZN8queueing4Fork13handleMessageEPN7omnetpp8cMessageE @71
    _ZN8queueing4ForkD0Ev @72
    _ZN8queueing4ForkD1Ev @73
    _ZN8queueing4ForkD2Ev @74
    _ZN8queueing4Join10initializeEv @75
    _ZN8queueing4Join13handleMessageEPN7omnetpp8cMessageE @76
    _ZN8queueing4JoinD0Ev @77
    _ZN8queueing4JoinD1Ev @78
    _ZN8queueing4JoinD2Ev @79
    _ZN8queueing4Sink10initializeEv @80
    _ZN8queueing4Sink13handleMessageEPN7omnetpp8cMessageE @81
    _ZN8queueing4Sink6finishEv @82
    _ZN8queueing5Clone10initializeEv @83
    _ZN8queueing5Clone13handleMessageEPN7omnetpp8cMessageE @84
    _ZN8queueing5Clone13updateJobNameEPNS_3JobEi @85
    _ZN8queueing5Delay10initializeEv @86
    _ZN8queueing5Delay13handleMessageEPN7omnetpp8cMessageE @87
    _ZN8queueing5Merge13handleMessageEPN7omnetpp8cMessageE @88
    _ZN8queueing5Queue10endServiceEPNS_3JobE @89
    _ZN8queueing5Queue10initializeEv @90
    _ZN8queueing5Queue12getFromQueueEv @91
    _ZN8queueing5Queue12startServiceEPNS_3JobE @92
    _ZN8queueing5Queue13handleMessageEPN7omnetpp8cMessageE @93
    _ZN8queueing5Queue6finishEv @94
    _ZN8queueing5Queue6lengthEv @95
    _ZN8queueing5Queue7arrivalEPNS_3JobE @96
    _ZN8queueing5QueueD0Ev @97
    _ZN8queueing5QueueD1Ev @98
    _ZN8queueing5QueueD2Ev @99
    _ZN8queueing6Router10initializeEv @100
    _ZN8queueing6Router13handleMessageEPN7omnetpp8cMessageE @101
    _ZN8queueing6Server10initializeEv @102
    _ZN8queueing6Server13handleMessageEPN7omnetpp8cMessageE @103
    _ZN8queueing6Server6finishEv @104
    _ZN8queueing6Server6isIdleEv @105
    _ZN8queueing6Server8allocateEv @106
    _ZN8queueing6ServerD0Ev @107
    _ZN8queueing6ServerD1Ev @108
    _ZN8queueing6ServerD2Ev @109
    _ZN8queueing6Source10initializeEv @110
    _ZN8queueing6Source13handleMessageEPN7omnetpp8cMessageE @111
    _ZN8queueing7JobList10initializeEv @112
    _ZN8queueing7JobList11registerJobEPNS_3JobE @113
    _ZN8queueing7JobList13deregisterJobEPNS_3JobE @114
    _ZN8queueing7JobList13handleMessageEPN7omnetpp8cMessageE @115
    _ZN8queueing7JobList15defaultInstanceE @116 DATA
    _ZN8queueing7JobList18getDefaultInstanceEv @117
    _ZN8queueing7JobList7getJobsEv @118
    _ZN8queueing7JobListC1Ev @119
    _ZN8queueing7JobListC2Ev @120
    _ZN8queueing7JobListD0Ev @121
    _ZN8queueing7JobListD1Ev @122
    _ZN8queueing7JobListD2Ev @123
    _ZN8queueing8Allocate10initializeEv @124
    _ZN8queueing8Allocate13enqueueOrDropEPNS_3JobE @125
    _ZN8queueing8Allocate13handleMessageEPN7omnetpp8cMessageE @126
    _ZN8queueing8Allocate15resourceGrantedEPNS_13IResourcePoolE @127
    _ZN8queueing8Allocate16allocateResourceEPNS_3JobE @128
    _ZN8queueing8Allocate4peekEv @129
    _ZN8queueing8Allocate7dequeueEv @130
    _ZN8queueing8Job_Base11setPriorityEi @131
    _ZN8queueing8Job_Base12parsimUnpackEPN7omnetpp11cCommBufferE @132
    _ZN8queueing8Job_Base13setDelayCountEi @133
    _ZN8queueing8Job_Base13setGenerationEi @134
    _ZN8queueing8Job_Base13setQueueCountEi @135
    _ZN8queueing8Job_Base17setTotalDelayTimeEN7omnetpp7SimTimeE @136
    _ZN8queueing8Job_Base19setTotalServiceTimeEN7omnetpp7SimTimeE @137
    _ZN8queueing8Job_Base20setTotalQueueingTimeEN7omnetpp7SimTimeE @138
    _ZN8queueing8Job_Base4copyERKS0_ @139
    _ZN8queueing8Job_BaseC1EPKcs @140
    _ZN8queueing8Job_BaseC1ERKS0_ @141
    _ZN8queueing8Job_BaseC2EPKcs @142
    _ZN8queueing8Job_BaseC2ERKS0_ @143
    _ZN8queueing8Job_BaseD0Ev @144
    _ZN8queueing8Job_BaseD1Ev @145
    _ZN8queueing8Job_BaseD2Ev @146
    _ZN8queueing8Job_BaseaSERKS0_ @147
    _ZNK8queueing12PassiveQueue14refreshDisplayEv @148
    _ZNK8queueing12ResourcePool14refreshDisplayEv @149
    _ZNK8queueing18ResourceBasedQueue11getFullPathB5cxx11Ev @150
    _ZNK8queueing18ResourceBasedQueue14refreshDisplayEv @151
    _ZNK8queueing3Job14getNumChildrenEv @152
    _ZNK8queueing4Join14refreshDisplayEv @153
    _ZNK8queueing5Delay14refreshDisplayEv @154
    _ZNK8queueing5Queue14refreshDisplayEv @155
    _ZNK8queueing6Server14refreshDisplayEv @156
    _ZNK8queueing8Allocate11getFullPathB5cxx11Ev @157
    _ZNK8queueing8Job_Base10parsimPackEPN7omnetpp11cCommBufferE @158
    _ZNK8queueing8Job_Base11getPriorityEv @159
    _ZNK8queueing8Job_Base13getDelayCountEv @160
    _ZNK8queueing8Job_Base13getGenerationEv @161
    _ZNK8queueing8Job_Base13getQueueCountEv @162
    _ZNK8queueing8Job_Base17getTotalDelayTimeEv @163
    _ZNK8queueing8Job_Base19getTotalServiceTimeEv @164
    _ZNK8queueing8Job_Base20getTotalQueueingTimeEv @165
    _ZTVN8queueing10ClassifierE @166 DATA
    _ZTVN8queueing10DeallocateE @167 DATA
    _ZTVN8queueing10SourceBaseE @168 DATA
    _ZTVN8queueing10SourceOnceE @169 DATA
    _ZTVN8queueing12PassiveQueueE @170 DATA
    _ZTVN8queueing12ResourcePoolE @171 DATA
    _ZTVN8queueing13IPassiveQueueE @172 DATA
    _ZTVN8queueing13IResourcePoolE @173 DATA
    _ZTVN8queueing17SelectionStrategyE @174 DATA
    _ZTVN8queueing18IResourceAllocatorE @175 DATA
    _ZTVN8queueing18ResourceBasedQueueE @176 DATA
    _ZTVN8queueing23RandomSelectionStrategyE @177 DATA
    _ZTVN8queueing25PrioritySelectionStrategyE @178 DATA
    _ZTVN8queueing27RoundRobinSelectionStrategyE @179 DATA
    _ZTVN8queueing29LongestQueueSelectionStrategyE @180 DATA
    _ZTVN8queueing30ShortestQueueSelectionStrategyE @181 DATA
    _ZTVN8queueing3JobE @182 DATA
    _ZTVN8queueing4ForkE @183 DATA
    _ZTVN8queueing4JoinE @184 DATA
    _ZTVN8queueing4SinkE @185 DATA
    _ZTVN8queueing5CloneE @186 DATA
    _ZTVN8queueing5DelayE @187 DATA
    _ZTVN8queueing5MergeE @188 DATA
    _ZTVN8queueing5QueueE @189 DATA
    _ZTVN8queueing6RouterE @190 DATA
    _ZTVN8queueing6ServerE @191 DATA
    _ZTVN8queueing6SourceE @192 DATA
    _ZTVN8queueing7IServerE @193 DATA
    _ZTVN8queueing7JobListE @194 DATA
    _ZTVN8queueing8AllocateE @195 DATA
    _ZTVN8queueing8Job_BaseE @196 DATA
    _ZThn216_N8queueing12PassiveQueue6lengthEv @197
    _ZThn216_N8queueing12PassiveQueue7requestEi @198
    _ZThn216_N8queueing12PassiveQueueD0Ev @199
    _ZThn216_N8queueing12PassiveQueueD1Ev @200
    _ZThn216_N8queueing12ResourcePool13tryToAllocateEPNS_18IResourceAllocatorEli @201
    _ZThn216_N8queueing12ResourcePool7releaseEl @202
    _ZThn216_N8queueing18ResourceBasedQueue15resourceGrantedEPNS_13IResourcePoolE @203
    _ZThn216_N8queueing18ResourceBasedQueueD0Ev @204
    _ZThn216_N8queueing18ResourceBasedQueueD1Ev @205
    _ZThn216_N8queueing6Server6isIdleEv @206
    _ZThn216_N8queueing6Server8allocateEv @207
    _ZThn216_N8queueing6ServerD0Ev @208
    _ZThn216_N8queueing6ServerD1Ev @209
    _ZThn216_N8queueing8Allocate15resourceGrantedEPNS_13IResourcePoolE @210
    _ZThn216_NK8queueing18ResourceBasedQueue11getFullPathB5cxx11Ev @211
    _ZThn216_NK8queueing8Allocate11getFullPathB5cxx11Ev @212
